target datalayout = "e-m:e-p270:32:32-p271:32:32-p272:64:64-i64:64-i128:128-f80:128-n8:16:32:64-S128"
target triple = "x86_64-pc-linux-gnu"

%struct._zend_phpdbg_globals = type { [11 x %struct._zend_array], %struct._zend_array, %struct._zend_array, ptr, ptr, %struct.phpdbg_frame_t, i32, ptr, %struct.phpdbg_lexer_data, ptr, %struct.sigaction, i32, i64, %struct.phpdbg_btree, %struct.phpdbg_btree, %struct._zend_array, %struct._zend_array, %struct._zend_array, %struct._zend_array, ptr, ptr, i8, ptr, ptr, ptr, i64, ptr, %struct._zval_struct, i32, i32, i8, i8, ptr, ptr, ptr, %struct._zend_array, ptr, ptr, ptr, [3 x %struct.anon.8], ptr, %struct.anon.9, i64, [2 x ptr], [3 x ptr], ptr, i8, ptr, ptr, [500 x i8], i32, %struct.phpdbg_signal_safe_mem, ptr, i64, ptr, i64 }
%struct.phpdbg_frame_t = type { i32, ptr, ptr }
%struct.phpdbg_lexer_data = type { i32, ptr, ptr, ptr, ptr, i32 }
%struct.sigaction = type { %union.anon.2, %struct.__sigset_t, i32, ptr }
%union.anon.2 = type { ptr }
%struct.__sigset_t = type { [16 x i64] }
%struct.phpdbg_btree = type { i64, i64, i8, ptr }
%struct._zval_struct = type { %union._zend_value, %union.anon.4, %union.anon.7 }
%union._zend_value = type { i64 }
%union.anon.4 = type { i32 }
%union.anon.7 = type { i32 }
%struct._zend_array = type { %struct._zend_refcounted_h, %union.anon.0, i32, %union.anon.1, i32, i32, i32, i32, i64, ptr }
%struct._zend_refcounted_h = type { i32, %union.anon }
%union.anon = type { i32 }
%union.anon.0 = type { i32 }
%union.anon.1 = type { ptr }
%struct.anon.8 = type { i32 }
%struct.anon.9 = type { i8, i32, i32, ptr, i32 }
%struct.phpdbg_signal_safe_mem = type { ptr, i8, ptr, ptr }
%struct._phpdbg_breakcond_t = type { i32, i8, i64, i8, ptr, i64, i8, %struct._phpdbg_param, i64, ptr }
%struct._phpdbg_param = type { i32, i64, i64, %struct.anon.10, %struct.anon.11, ptr, i64, ptr, ptr }
%struct.anon.10 = type { ptr, i64 }
%struct.anon.11 = type { ptr, ptr }

@phpdbg_globals = external global %struct._zend_phpdbg_globals, align 8
@.str.45 = private unnamed_addr constant [28 x i8] c"Conditional break %s exists\00", align 1

; Function Attrs: nounwind uwtable
define void @phpdbg_set_breakpoint_expression(ptr noundef %0, i64 noundef %1) #0 {
  %3 = alloca ptr, align 8
  %4 = alloca i64, align 8
  %5 = alloca ptr, align 8
  %6 = alloca i64, align 8
  %7 = alloca i64, align 8
  %8 = alloca %struct._phpdbg_breakcond_t, align 8
  store ptr %0, ptr %5, align 8
  store i64 %1, ptr %6, align 8
  %9 = load ptr, ptr %5, align 8
  %10 = load i64, ptr %6, align 8
  %11 = call i64 @zend_hash_func(ptr noundef %9, i64 noundef %10)
  store i64 %11, ptr %7, align 8
  %12 = load i64, ptr %7, align 8
  store ptr getelementptr inbounds ([11 x %struct._zend_array], ptr @phpdbg_globals, i64 0, i64 5), ptr %3, align 8
  store i64 %12, ptr %4, align 8
  %13 = load ptr, ptr %3, align 8
  %14 = load i64, ptr %4, align 8
  %15 = call ptr @zend_hash_index_find(ptr noundef %13, i64 noundef %14) #11
  %16 = icmp ne ptr %15, null
  br i1 %16, label %21, label %17

17:                                               ; preds = %2
  %18 = load ptr, ptr %5, align 8
  %19 = load i64, ptr %6, align 8
  %20 = load i64, ptr %7, align 8
  call void @phpdbg_create_conditional_break(ptr noundef %8, ptr noundef null, ptr noundef %18, i64 noundef %19, i64 noundef %20)
  br label %25

21:                                               ; preds = %2
  %22 = load i32, ptr getelementptr inbounds (%struct._zend_phpdbg_globals, ptr @phpdbg_globals, i32 0, i32 39, i64 1), align 4
  %23 = load ptr, ptr %5, align 8
  %24 = call i32 (i32, i32, ptr, ...) @phpdbg_print(i32 noundef 1, i32 noundef %22, ptr noundef @.str.45, ptr noundef %23)
  br label %25

25:                                               ; preds = %21, %17
  ret void
}