; Function Attrs: nounwind uwtable
define void @phpdbg_set_breakpoint_expression(ptr noundef %0, i64 noundef %1) local_unnamed_addr #1 {
  %3 = tail call i64 @zend_hash_func(ptr noundef %0, i64 noundef %1) #14
  %4 = tail call ptr @zend_hash_index_find(ptr noundef nonnull getelementptr inbounds (%struct._zend_phpdbg_globals, ptr @phpdbg_globals, i64 0, i32 0, i64 5), i64 noundef %3) #14
  %.not = icmp eq ptr %4, null
  br i1 %.not, label %5, label %6

5:                                                ; preds = %2
  tail call fastcc void @phpdbg_create_conditional_break(ptr noundef null, ptr noundef %0, i64 noundef %1, i64 noundef %3)
  br label %9

6:                                                ; preds = %2
  %7 = load i32, ptr getelementptr inbounds (%struct._zend_phpdbg_globals, ptr @phpdbg_globals, i64 0, i32 39, i64 1), align 4
  %8 = tail call i32 (i32, i32, ptr, ...) @phpdbg_print(i32 noundef 1, i32 noundef %7, ptr noundef nonnull @.str.45, ptr noundef %0) #14
  br label %9

9:                                                ; preds = %6, %5
  ret void
}